target datalayout = "e-m:e-p270:32:32-p271:32:32-p272:64:64-i64:64-i128:128-f80:128-n8:16:32:64-S128"
target triple = "x86_64-pc-linux-gnu"

%"struct.icu_77::FormattedStringBuilder::Field" = type { i8 }
%"class.icu_77::FormattedValue" = type { ptr }
%"class.icu_77::UnicodeString" = type { %"class.icu_77::Replaceable", %"union.icu_77::UnicodeString::StackBufferOrFields" }
%"class.icu_77::Replaceable" = type { %"class.icu_77::UObject" }
%"class.icu_77::UObject" = type { ptr }
%"union.icu_77::UnicodeString::StackBufferOrFields" = type { %struct.anon.4, [32 x i8] }
%struct.anon.4 = type { i16, i32, i32, ptr }
%"class.icu_77::(anonymous namespace)::FormattedListBuilder" = type { %"class.icu_77::LocalPointer.5" }
%"class.icu_77::LocalPointer.5" = type { %"class.icu_77::LocalPointerBase.6" }
%"class.icu_77::LocalPointerBase.6" = type { ptr }
%"class.icu_77::FormattedValueStringBuilderImpl" = type <{ %"class.icu_77::FormattedValue", %"class.icu_77::FormattedStringBuilder", %"struct.icu_77::FormattedStringBuilder::Field", [7 x i8], %"class.icu_77::MaybeStackArray.2", i32, [4 x i8] }>
%"class.icu_77::FormattedStringBuilder" = type { i8, %"union.icu_77::FormattedStringBuilder::ValueOrHeapArray", %"union.icu_77::FormattedStringBuilder::ValueOrHeapArray.0", i32, i32 }
%"union.icu_77::FormattedStringBuilder::ValueOrHeapArray" = type { %struct.anon, [64 x i8] }
%struct.anon = type { ptr, i32 }
%"union.icu_77::FormattedStringBuilder::ValueOrHeapArray.0" = type { %struct.anon.1, [24 x i8] }
%struct.anon.1 = type { ptr, i32 }
%"class.icu_77::MaybeStackArray.2" = type { ptr, i32, i8, [8 x %"struct.icu_77::SpanInfo"] }
%"struct.icu_77::SpanInfo" = type { i32, i32, i32, i32 }

@_ZN6icu_77L15kUndefinedFieldE = internal constant %"struct.icu_77::FormattedStringBuilder::Field" zeroinitializer, align 1

; Function Attrs: mustprogress nounwind uwtable
define linkonce_odr void @_ZN6icu_7716LocalPointerBaseINS_17FormattedListDataEED2Ev(ptr noundef nonnull align 8 dereferenceable(8) %0) unnamed_addr #0 comdat align 2 {
  %2 = alloca ptr, align 8
  store ptr %0, ptr %2, align 8, !tbaa !93
  ret void
}

; Function Attrs: inlinehint mustprogress nounwind uwtable
define linkonce_odr noundef i32 @_ZNK6icu_7713UnicodeString14getShortLengthEv(ptr noundef nonnull align 8 dereferenceable(64) %0) #2 comdat align 2 {
  %2 = alloca ptr, align 8
  store ptr %0, ptr %2, align 8, !tbaa !72
  %3 = load ptr, ptr %2, align 8
  %4 = getelementptr inbounds nuw %"class.icu_77::UnicodeString", ptr %3, i32 0, i32 1
  %5 = getelementptr inbounds nuw %struct.anon.4, ptr %4, i32 0, i32 0
  %6 = load i16, ptr %5, align 8, !tbaa !65
  %7 = sext i16 %6 to i32
  %8 = ashr i32 %7, 5
  ret i32 %8
}

; Function Attrs: inlinehint mustprogress nounwind uwtable
define linkonce_odr noundef signext i8 @_ZNK6icu_7713UnicodeString14hasShortLengthEv(ptr noundef nonnull align 8 dereferenceable(64) %0) #2 comdat align 2 {
  %2 = alloca ptr, align 8
  store ptr %0, ptr %2, align 8, !tbaa !72
  %3 = load ptr, ptr %2, align 8
  %4 = getelementptr inbounds nuw %"class.icu_77::UnicodeString", ptr %3, i32 0, i32 1
  %5 = getelementptr inbounds nuw %struct.anon.4, ptr %4, i32 0, i32 0
  %6 = load i16, ptr %5, align 8, !tbaa !65
  %7 = sext i16 %6 to i32
  %8 = icmp sge i32 %7, 0
  %9 = zext i1 %8 to i8
  ret i8 %9
}

; Function Attrs: mustprogress nounwind uwtable
define linkonce_odr void @_ZN6icu_7716LocalPointerBaseINS_17FormattedListDataEEC2EPS1_(ptr noundef nonnull align 8 dereferenceable(8) %0, ptr noundef %1) unnamed_addr #0 comdat align 2 {
  %3 = alloca ptr, align 8
  %4 = alloca ptr, align 8
  store ptr %0, ptr %3, align 8, !tbaa !93
  store ptr %1, ptr %4, align 8, !tbaa !23
  %5 = load ptr, ptr %3, align 8
  %6 = getelementptr inbounds nuw %"class.icu_77::LocalPointerBase.6", ptr %5, i32 0, i32 0
  %7 = load ptr, ptr %4, align 8, !tbaa !23
  store ptr %7, ptr %6, align 8, !tbaa !95
  ret void
}

; Function Attrs: mustprogress nounwind uwtable
define linkonce_odr void @_ZN6icu_7712LocalPointerINS_17FormattedListDataEED2Ev(ptr noundef nonnull align 8 dereferenceable(8) %0) unnamed_addr #0 comdat align 2 {
  %2 = alloca ptr, align 8
  store ptr %0, ptr %2, align 8, !tbaa !143
  %3 = load ptr, ptr %2, align 8
  %4 = getelementptr inbounds nuw %"class.icu_77::LocalPointerBase.6", ptr %3, i32 0, i32 0
  %5 = load ptr, ptr %4, align 8, !tbaa !95
  %6 = icmp eq ptr %5, null
  br i1 %6, label %11, label %7

7:                                                ; preds = %1
  %8 = load ptr, ptr %5, align 8, !tbaa !27
  %9 = getelementptr inbounds ptr, ptr %8, i64 1
  %10 = load ptr, ptr %9, align 8
  call void %10(ptr noundef nonnull align 8 dereferenceable(300) %5) #12
  br label %11

11:                                               ; preds = %7, %1
  call void @_ZN6icu_7716LocalPointerBaseINS_17FormattedListDataEED2Ev(ptr noundef nonnull align 8 dereferenceable(8) %3) #12
  ret void
}

; Function Attrs: inlinehint mustprogress uwtable
define linkonce_odr noundef i32 @_ZNK6icu_7713UnicodeString6lengthEv(ptr noundef nonnull align 8 dereferenceable(64) %0) #3 comdat align 2 {
  %2 = alloca ptr, align 8
  store ptr %0, ptr %2, align 8, !tbaa !72
  %3 = load ptr, ptr %2, align 8
  %4 = call noundef signext i8 @_ZNK6icu_7713UnicodeString14hasShortLengthEv(ptr noundef nonnull align 8 dereferenceable(64) %3)
  %5 = icmp ne i8 %4, 0
  br i1 %5, label %6, label %8

6:                                                ; preds = %1
  %7 = call noundef i32 @_ZNK6icu_7713UnicodeString14getShortLengthEv(ptr noundef nonnull align 8 dereferenceable(64) %3)
  br label %12

8:                                                ; preds = %1
  %9 = getelementptr inbounds nuw %"class.icu_77::UnicodeString", ptr %3, i32 0, i32 1
  %10 = getelementptr inbounds nuw %struct.anon.4, ptr %9, i32 0, i32 1
  %11 = load i32, ptr %10, align 4, !tbaa !65
  br label %12

12:                                               ; preds = %8, %6
  %13 = phi i32 [ %7, %6 ], [ %11, %8 ]
  ret i32 %13
}

; Function Attrs: inlinehint mustprogress uwtable
define linkonce_odr noundef i32 @_ZN6icu_7722FormattedStringBuilder6appendERKNS_13UnicodeStringENS0_5FieldER10UErrorCode(ptr noundef nonnull align 8 dereferenceable(136) %0, ptr noundef nonnull align 8 dereferenceable(64) %1, i8 %2, ptr noundef nonnull align 4 dereferenceable(4) %3) #3 comdat align 2 {
  %5 = alloca %"struct.icu_77::FormattedStringBuilder::Field", align 1
  %6 = alloca ptr, align 8
  %7 = alloca ptr, align 8
  %8 = alloca ptr, align 8
  %9 = alloca %"struct.icu_77::FormattedStringBuilder::Field", align 1
  %10 = getelementptr inbounds nuw %"struct.icu_77::FormattedStringBuilder::Field", ptr %5, i32 0, i32 0
  store i8 %2, ptr %10, align 1
  store ptr %0, ptr %6, align 8, !tbaa !145
  store ptr %1, ptr %7, align 8, !tbaa !72
  store ptr %3, ptr %8, align 8, !tbaa !22
  %11 = load ptr, ptr %6, align 8
  %12 = getelementptr inbounds nuw %"class.icu_77::FormattedStringBuilder", ptr %11, i32 0, i32 4
  %13 = load i32, ptr %12, align 4, !tbaa !147
  %14 = load ptr, ptr %7, align 8, !tbaa !72
  call void @llvm.memcpy.p0.p0.i64(ptr align 1 %9, ptr align 1 %5, i64 1, i1 false), !tbaa.struct !142
  %15 = load ptr, ptr %8, align 8, !tbaa !22
  %16 = getelementptr inbounds nuw %"struct.icu_77::FormattedStringBuilder::Field", ptr %9, i32 0, i32 0
  %17 = load i8, ptr %16, align 1
  %18 = call noundef i32 @_ZN6icu_7722FormattedStringBuilder6insertEiRKNS_13UnicodeStringENS0_5FieldER10UErrorCode(ptr noundef nonnull align 8 dereferenceable(136) %11, i32 noundef %13, ptr noundef nonnull align 8 dereferenceable(64) %14, i8 %17, ptr noundef nonnull align 4 dereferenceable(4) %15)
  ret i32 %18
}

; Function Attrs: mustprogress nounwind uwtable
define linkonce_odr void @_ZN6icu_7722FormattedStringBuilder5FieldC2Ehh(ptr noundef nonnull align 1 dereferenceable(1) %0, i8 noundef zeroext %1, i8 noundef zeroext %2) unnamed_addr #0 comdat align 2 {
  %4 = alloca ptr, align 8
  %5 = alloca i8, align 1
  %6 = alloca i8, align 1
  store ptr %0, ptr %4, align 8, !tbaa !149
  store i8 %1, ptr %5, align 1, !tbaa !65
  store i8 %2, ptr %6, align 1, !tbaa !65
  %7 = load ptr, ptr %4, align 8
  %8 = getelementptr inbounds nuw %"struct.icu_77::FormattedStringBuilder::Field", ptr %7, i32 0, i32 0
  %9 = load i8, ptr %5, align 1, !tbaa !65
  %10 = zext i8 %9 to i32
  %11 = shl i32 %10, 4
  %12 = load i8, ptr %6, align 1, !tbaa !65
  %13 = zext i8 %12 to i32
  %14 = or i32 %11, %13
  %15 = trunc i32 %14 to i8
  store i8 %15, ptr %8, align 1, !tbaa !151
  ret void
}

; Function Attrs: inlinehint mustprogress nounwind uwtable
define linkonce_odr noundef nonnull align 8 dereferenceable(136) ptr @_ZN6icu_7731FormattedValueStringBuilderImpl12getStringRefEv(ptr noundef nonnull align 8 dereferenceable(300) %0) #2 comdat align 2 {
  %2 = alloca ptr, align 8
  store ptr %0, ptr %2, align 8, !tbaa !97
  %3 = load ptr, ptr %2, align 8
  %4 = getelementptr inbounds nuw %"class.icu_77::FormattedValueStringBuilderImpl", ptr %3, i32 0, i32 1
  ret ptr %4
}

; Function Attrs: mustprogress nounwind uwtable
define linkonce_odr noundef ptr @_ZNK6icu_7716LocalPointerBaseINS_17FormattedListDataEEptEv(ptr noundef nonnull align 8 dereferenceable(8) %0) #0 comdat align 2 {
  %2 = alloca ptr, align 8
  store ptr %0, ptr %2, align 8, !tbaa !93
  %3 = load ptr, ptr %2, align 8
  %4 = getelementptr inbounds nuw %"class.icu_77::LocalPointerBase.6", ptr %3, i32 0, i32 0
  %5 = load ptr, ptr %4, align 8, !tbaa !95
  ret ptr %5
}

; Function Attrs: inlinehint mustprogress nounwind uwtable
define internal noundef signext i8 @_ZL9U_SUCCESS10UErrorCode(i32 noundef %0) #2 {
  %2 = alloca i32, align 4
  store i32 %0, ptr %2, align 4, !tbaa !15
  %3 = load i32, ptr %2, align 4, !tbaa !15
  %4 = icmp sle i32 %3, 0
  %5 = zext i1 %4 to i8
  ret i8 %5
}

; Function Attrs: mustprogress uwtable
define linkonce_odr void @_ZN6icu_7712LocalPointerINS_17FormattedListDataEEC2EPS1_R10UErrorCode(ptr noundef nonnull align 8 dereferenceable(8) %0, ptr noundef %1, ptr noundef nonnull align 4 dereferenceable(4) %2) unnamed_addr #1 comdat align 2 {
  %4 = alloca ptr, align 8
  %5 = alloca ptr, align 8
  %6 = alloca ptr, align 8
  store ptr %0, ptr %4, align 8, !tbaa !143
  store ptr %1, ptr %5, align 8, !tbaa !23
  store ptr %2, ptr %6, align 8, !tbaa !22
  %7 = load ptr, ptr %4, align 8
  %8 = load ptr, ptr %5, align 8, !tbaa !23
  call void @_ZN6icu_7716LocalPointerBaseINS_17FormattedListDataEEC2EPS1_(ptr noundef nonnull align 8 dereferenceable(8) %7, ptr noundef %8)
  %9 = load ptr, ptr %5, align 8, !tbaa !23
  %10 = icmp eq ptr %9, null
  br i1 %10, label %11, label %18

11:                                               ; preds = %3
  %12 = load ptr, ptr %6, align 8, !tbaa !22
  %13 = load i32, ptr %12, align 4, !tbaa !15
  %14 = call noundef signext i8 @_ZL9U_SUCCESS10UErrorCode(i32 noundef %13)
  %15 = icmp ne i8 %14, 0
  br i1 %15, label %16, label %18

16:                                               ; preds = %11
  %17 = load ptr, ptr %6, align 8, !tbaa !22
  store i32 7, ptr %17, align 4, !tbaa !15
  br label %18

18:                                               ; preds = %16, %11, %3
  ret void
}

; Function Attrs: mustprogress uwtable
define linkonce_odr void @_ZN6icu_7717FormattedListDataC2ER10UErrorCode(ptr noundef nonnull align 8 dereferenceable(300) %0, ptr noundef nonnull align 4 dereferenceable(4) %1) unnamed_addr #1 comdat align 2 {
  %3 = alloca ptr, align 8
  %4 = alloca ptr, align 8
  %5 = alloca %"struct.icu_77::FormattedStringBuilder::Field", align 1
  store ptr %0, ptr %3, align 8, !tbaa !23
  store ptr %1, ptr %4, align 8, !tbaa !22
  %6 = load ptr, ptr %3, align 8
  call void @llvm.memcpy.p0.p0.i64(ptr align 1 %5, ptr align 1 @_ZN6icu_77L15kUndefinedFieldE, i64 1, i1 false), !tbaa.struct !142
  %7 = getelementptr inbounds nuw %"struct.icu_77::FormattedStringBuilder::Field", ptr %5, i32 0, i32 0
  %8 = load i8, ptr %7, align 1
  call void @_ZN6icu_7731FormattedValueStringBuilderImplC2ENS_22FormattedStringBuilder5FieldE(ptr noundef nonnull align 8 dereferenceable(300) %6, i8 %8)
  store ptr getelementptr inbounds inrange(-16, 48) ({ [8 x ptr] }, ptr @_ZTVN6icu_7717FormattedListDataE, i32 0, i32 0, i32 2), ptr %6, align 8, !tbaa !27
  ret void
}

; Function Attrs: mustprogress uwtable
define internal void @_ZN6icu_7712_GLOBAL__N_120FormattedListBuilderC2ERKNS_13UnicodeStringER10UErrorCode(ptr noundef nonnull align 8 dereferenceable(8) %0, ptr noundef nonnull align 8 dereferenceable(64) %1, ptr noundef nonnull align 4 dereferenceable(4) %2) unnamed_addr #1 align 2 personality ptr @__gxx_personality_v0 {
  %4 = alloca ptr, align 8
  %5 = alloca ptr, align 8
  %6 = alloca ptr, align 8
  %7 = alloca i1, align 1
  %8 = alloca ptr, align 8
  %9 = alloca i32, align 4
  %10 = alloca %"struct.icu_77::FormattedStringBuilder::Field", align 1
  store ptr %0, ptr %4, align 8, !tbaa !91
  store ptr %1, ptr %5, align 8, !tbaa !72
  store ptr %2, ptr %6, align 8, !tbaa !22
  %11 = load ptr, ptr %4, align 8
  %12 = getelementptr inbounds nuw %"class.icu_77::(anonymous namespace)::FormattedListBuilder", ptr %11, i32 0, i32 0
  %13 = call noundef ptr @_ZN6icu_777UMemorynwEm(i64 noundef 304) #12
  %14 = icmp eq ptr %13, null
  store i1 false, ptr %7, align 1
  br i1 %14, label %18, label %15

15:                                               ; preds = %3
  store i1 true, ptr %7, align 1
  %16 = load ptr, ptr %6, align 8, !tbaa !22
  invoke void @_ZN6icu_7717FormattedListDataC2ER10UErrorCode(ptr noundef nonnull align 8 dereferenceable(300) %13, ptr noundef nonnull align 4 dereferenceable(4) %16)
          to label %17 unwind label %46

17:                                               ; preds = %15
  br label %18

18:                                               ; preds = %17, %3
  %19 = phi ptr [ %13, %17 ], [ null, %3 ]
  %20 = load ptr, ptr %6, align 8, !tbaa !22
  call void @_ZN6icu_7712LocalPointerINS_17FormattedListDataEEC2EPS1_R10UErrorCode(ptr noundef nonnull align 8 dereferenceable(8) %12, ptr noundef %19, ptr noundef nonnull align 4 dereferenceable(4) %20)
  %21 = load ptr, ptr %6, align 8, !tbaa !22
  %22 = load i32, ptr %21, align 4, !tbaa !15
  %23 = call noundef signext i8 @_ZL9U_SUCCESS10UErrorCode(i32 noundef %22)
  %24 = icmp ne i8 %23, 0
  br i1 %24, label %25, label %57

25:                                               ; preds = %18
  %26 = getelementptr inbounds nuw %"class.icu_77::(anonymous namespace)::FormattedListBuilder", ptr %11, i32 0, i32 0
  %27 = invoke noundef ptr @_ZNK6icu_7716LocalPointerBaseINS_17FormattedListDataEEptEv(ptr noundef nonnull align 8 dereferenceable(8) %26)
          to label %28 unwind label %53

28:                                               ; preds = %25
  %29 = invoke noundef nonnull align 8 dereferenceable(136) ptr @_ZN6icu_7731FormattedValueStringBuilderImpl12getStringRefEv(ptr noundef nonnull align 8 dereferenceable(300) %27)
          to label %30 unwind label %53

30:                                               ; preds = %28
  %31 = load ptr, ptr %5, align 8, !tbaa !72
  invoke void @_ZN6icu_7722FormattedStringBuilder5FieldC2Ehh(ptr noundef nonnull align 1 dereferenceable(1) %10, i8 noundef zeroext 3, i8 noundef zeroext 1)
          to label %32 unwind label %53

32:                                               ; preds = %30
  %33 = load ptr, ptr %6, align 8, !tbaa !22
  %34 = getelementptr inbounds nuw %"struct.icu_77::FormattedStringBuilder::Field", ptr %10, i32 0, i32 0
  %35 = load i8, ptr %34, align 1
  %36 = invoke noundef i32 @_ZN6icu_7722FormattedStringBuilder6appendERKNS_13UnicodeStringENS0_5FieldER10UErrorCode(ptr noundef nonnull align 8 dereferenceable(136) %29, ptr noundef nonnull align 8 dereferenceable(64) %31, i8 %35, ptr noundef nonnull align 4 dereferenceable(4) %33)
          to label %37 unwind label %53

37:                                               ; preds = %32
  %38 = getelementptr inbounds nuw %"class.icu_77::(anonymous namespace)::FormattedListBuilder", ptr %11, i32 0, i32 0
  %39 = invoke noundef ptr @_ZNK6icu_7716LocalPointerBaseINS_17FormattedListDataEEptEv(ptr noundef nonnull align 8 dereferenceable(8) %38)
          to label %40 unwind label %53

40:                                               ; preds = %37
  %41 = load ptr, ptr %5, align 8, !tbaa !72
  %42 = invoke noundef i32 @_ZNK6icu_7713UnicodeString6lengthEv(ptr noundef nonnull align 8 dereferenceable(64) %41)
          to label %43 unwind label %53

43:                                               ; preds = %40
  %44 = load ptr, ptr %6, align 8, !tbaa !22
  invoke void @_ZN6icu_7731FormattedValueStringBuilderImpl14appendSpanInfoE14UFieldCategoryiiiR10UErrorCode(ptr noundef nonnull align 8 dereferenceable(300) %39, i32 noundef 4099, i32 noundef 0, i32 noundef -1, i32 noundef %42, ptr noundef nonnull align 4 dereferenceable(4) %44)
          to label %45 unwind label %53

45:                                               ; preds = %43
  br label %57

46:                                               ; preds = %15
  %47 = landingpad { ptr, i32 }
          cleanup
  %48 = extractvalue { ptr, i32 } %47, 0
  store ptr %48, ptr %8, align 8
  %49 = extractvalue { ptr, i32 } %47, 1
  store i32 %49, ptr %9, align 4
  %50 = load i1, ptr %7, align 1
  br i1 %50, label %51, label %52

51:                                               ; preds = %46
  call void @_ZN6icu_777UMemorydlEPv(ptr noundef %13) #12
  br label %52

52:                                               ; preds = %51, %46
  br label %58

53:                                               ; preds = %43, %40, %37, %32, %30, %28, %25
  %54 = landingpad { ptr, i32 }
          cleanup
  %55 = extractvalue { ptr, i32 } %54, 0
  store ptr %55, ptr %8, align 8
  %56 = extractvalue { ptr, i32 } %54, 1
  store i32 %56, ptr %9, align 4
  call void @_ZN6icu_7712LocalPointerINS_17FormattedListDataEED2Ev(ptr noundef nonnull align 8 dereferenceable(8) %12) #12
  br label %58

57:                                               ; preds = %45, %18
  ret void

58:                                               ; preds = %53, %52
  %59 = load ptr, ptr %8, align 8
  %60 = load i32, ptr %9, align 4
  %61 = insertvalue { ptr, i32 } poison, ptr %59, 0
  %62 = insertvalue { ptr, i32 } %61, i32 %60, 1
  resume { ptr, i32 } %62
}