; Function Attrs: mustprogress uwtable
define internal fastcc void @_ZN6icu_7712_GLOBAL__N_120FormattedListBuilderC2ERKNS_13UnicodeStringER10UErrorCode(ptr noundef nonnull align 8 captures(none) dereferenceable(8) %0, ptr noundef nonnull align 8 dereferenceable(64) %1, ptr noundef nonnull align 4 dereferenceable(4) %2) unnamed_addr #1 align 2 personality ptr @__gxx_personality_v0 {
  %4 = tail call noundef ptr @_ZN6icu_777UMemorynwEm(i64 noundef 304) #19
  %5 = icmp eq ptr %4, null
  br i1 %5, label %7, label %6

6:                                                ; preds = %3
  invoke void @_ZN6icu_7731FormattedValueStringBuilderImplC2ENS_22FormattedStringBuilder5FieldE(ptr noundef nonnull align 8 dereferenceable(300) %4, i8 0)
          to label %_ZN6icu_7712LocalPointerINS_17FormattedListDataEEC2EPS1_R10UErrorCode.exit unwind label %27

7:                                                ; preds = %3
  store ptr null, ptr %0, align 8, !tbaa !62
  %8 = load i32, ptr %2, align 4
  %9 = icmp sgt i32 %8, 0
  br i1 %9, label %_ZN6icu_7712LocalPointerINS_17FormattedListDataEEC2EPS1_R10UErrorCode.exit.thread, label %10

10:                                               ; preds = %7
  store i32 7, ptr %2, align 4, !tbaa !13
  br label %_ZN6icu_7712LocalPointerINS_17FormattedListDataEEC2EPS1_R10UErrorCode.exit.thread

_ZN6icu_7712LocalPointerINS_17FormattedListDataEEC2EPS1_R10UErrorCode.exit: ; preds = %6
  store ptr getelementptr inbounds nuw inrange(-16, 48) (i8, ptr @_ZTVN6icu_7717FormattedListDataE, i64 16), ptr %4, align 8, !tbaa !15
  store ptr %4, ptr %0, align 8, !tbaa !62
  %.pre = load i32, ptr %2, align 4, !tbaa !13
  %11 = icmp sgt i32 %.pre, 0
  br i1 %11, label %_ZN6icu_7712LocalPointerINS_17FormattedListDataEEC2EPS1_R10UErrorCode.exit.thread, label %12

12:                                               ; preds = %_ZN6icu_7712LocalPointerINS_17FormattedListDataEEC2EPS1_R10UErrorCode.exit
  %13 = getelementptr inbounds nuw i8, ptr %4, i64 8
  %14 = getelementptr inbounds nuw i8, ptr %4, i64 140
  %15 = load i32, ptr %14, align 4, !tbaa !65
  %16 = invoke noundef i32 @_ZN6icu_7722FormattedStringBuilder6insertEiRKNS_13UnicodeStringENS0_5FieldER10UErrorCode(ptr noundef nonnull align 8 dereferenceable(136) %13, i32 noundef %15, ptr noundef nonnull align 8 dereferenceable(64) %1, i8 49, ptr noundef nonnull align 4 dereferenceable(4) %2)
          to label %17 unwind label %29

17:                                               ; preds = %12
  %18 = load ptr, ptr %0, align 8, !tbaa !62
  %19 = getelementptr inbounds nuw i8, ptr %1, i64 8
  %20 = load i16, ptr %19, align 8, !tbaa !25
  %21 = icmp slt i16 %20, 0
  %22 = ashr i16 %20, 5
  %23 = sext i16 %22 to i32
  %24 = getelementptr inbounds nuw i8, ptr %1, i64 12
  %25 = load i32, ptr %24, align 4
  %26 = select i1 %21, i32 %25, i32 %23
  invoke void @_ZN6icu_7731FormattedValueStringBuilderImpl14appendSpanInfoE14UFieldCategoryiiiR10UErrorCode(ptr noundef nonnull align 8 dereferenceable(300) %18, i32 noundef 4099, i32 noundef 0, i32 noundef -1, i32 noundef %26, ptr noundef nonnull align 4 dereferenceable(4) %2)
          to label %_ZN6icu_7712LocalPointerINS_17FormattedListDataEEC2EPS1_R10UErrorCode.exit.thread unwind label %29

27:                                               ; preds = %6
  %28 = landingpad { ptr, i32 }
          cleanup
  tail call void @_ZN6icu_777UMemorydlEPv(ptr noundef nonnull %4) #19
  br label %_ZN6icu_7712LocalPointerINS_17FormattedListDataEED2Ev.exit

29:                                               ; preds = %12, %17
  %30 = landingpad { ptr, i32 }
          cleanup
  %31 = load ptr, ptr %0, align 8, !tbaa !62
  %32 = icmp eq ptr %31, null
  br i1 %32, label %_ZN6icu_7712LocalPointerINS_17FormattedListDataEED2Ev.exit, label %33

33:                                               ; preds = %29
  %34 = load ptr, ptr %31, align 8, !tbaa !15
  %35 = getelementptr inbounds nuw i8, ptr %34, i64 8
  %36 = load ptr, ptr %35, align 8
  tail call void %36(ptr noundef nonnull align 8 dereferenceable(300) %31) #19
  br label %_ZN6icu_7712LocalPointerINS_17FormattedListDataEED2Ev.exit

_ZN6icu_7712LocalPointerINS_17FormattedListDataEEC2EPS1_R10UErrorCode.exit.thread: ; preds = %10, %7, %17, %_ZN6icu_7712LocalPointerINS_17FormattedListDataEEC2EPS1_R10UErrorCode.exit
  ret void

_ZN6icu_7712LocalPointerINS_17FormattedListDataEED2Ev.exit: ; preds = %33, %29, %27
  %.pn = phi { ptr, i32 } [ %28, %27 ], [ %30, %29 ], [ %30, %33 ]
  resume { ptr, i32 } %.pn
}